; Function Attrs: nounwind sspstrong uwtable
define internal fastcc range(i32 0, 7) i32 @qcow2_get_subcluster_type(ptr noundef readonly captures(none) %bs, i64 noundef %l2_entry, i64 noundef %l2_bitmap, i32 noundef %sc_index) unnamed_addr #0 {
entry:
  %opaque = getelementptr inbounds nuw i8, ptr %bs, i64 24
  %0 = load ptr, ptr %opaque, align 8
  %and.i = and i64 %l2_entry, 4611686018427387904
  %tobool.not.i = icmp eq i64 %and.i, 0
  br i1 %tobool.not.i, label %if.else.i, label %qcow2_get_cluster_type.exit

if.else.i:                                        ; preds = %entry
  %and1.i = and i64 %l2_entry, 1
  %tobool2.not.i = icmp eq i64 %and1.i, 0
  br i1 %tobool2.not.i, label %if.else7.i, label %land.lhs.true.i

land.lhs.true.i:                                  ; preds = %if.else.i
  %1 = getelementptr i8, ptr %0, i64 360
  %.val.i = load i64, ptr %1, align 8
  %and.i.i = and i64 %.val.i, 16
  %tobool.i.not.i = icmp eq i64 %and.i.i, 0
  br i1 %tobool.i.not.i, label %if.then3.i, label %if.else7.i

if.then3.i:                                       ; preds = %land.lhs.true.i
  %and4.i = and i64 %l2_entry, 72057594037927424
  %tobool5.not.i = icmp eq i64 %and4.i, 0
  %..i = select i1 %tobool5.not.i, i32 1, i32 2
  br label %qcow2_get_cluster_type.exit

if.else7.i:                                       ; preds = %land.lhs.true.i, %if.else.i
  %and8.i = and i64 %l2_entry, 72057594037927424
  %tobool9.not.i = icmp eq i64 %and8.i, 0
  br i1 %tobool9.not.i, label %if.then10.i, label %qcow2_get_cluster_type.exit

if.then10.i:                                      ; preds = %if.else7.i
  %2 = getelementptr i8, ptr %bs, i64 16840
  %bs.val6.i = load ptr, ptr %2, align 8
  %3 = getelementptr i8, ptr %0, i64 480
  %bs.val.val.i = load ptr, ptr %3, align 8
  %cmp.i.not.i = icmp eq ptr %bs.val.val.i, %bs.val6.i
  %tobool14.not.i = icmp sgt i64 %l2_entry, -1
  %or.cond.i = or i1 %tobool14.not.i, %cmp.i.not.i
  %spec.select.i = select i1 %or.cond.i, i32 0, i32 3
  br label %qcow2_get_cluster_type.exit

qcow2_get_cluster_type.exit:                      ; preds = %entry, %if.then3.i, %if.else7.i, %if.then10.i
  %retval.0.i = phi i32 [ 4, %entry ], [ %..i, %if.then3.i ], [ 3, %if.else7.i ], [ %spec.select.i, %if.then10.i ]
  %subclusters_per_cluster = getelementptr inbounds nuw i8, ptr %0, i64 20
  %4 = load i32, ptr %subclusters_per_cluster, align 4
  %cmp = icmp ult i32 %sc_index, %4
  br i1 %cmp, label %if.end, label %if.else

if.else:                                          ; preds = %qcow2_get_cluster_type.exit
  tail call void @__assert_fail(ptr noundef nonnull @.str.29, ptr noundef nonnull @.str.30, i32 noundef 754, ptr noundef nonnull @__PRETTY_FUNCTION__.qcow2_get_subcluster_type) #15
  unreachable

if.end:                                           ; preds = %qcow2_get_cluster_type.exit
  %5 = getelementptr i8, ptr %0, i64 360
  %.val = load i64, ptr %5, align 8
  %and.i13 = and i64 %.val, 16
  %tobool.i.not = icmp eq i64 %and.i13, 0
  br i1 %tobool.i.not, label %switch.lookup, label %if.then2

if.then2:                                         ; preds = %if.end
  switch i32 %retval.0.i, label %do.body [
    i32 4, label %if.end39
    i32 3, label %sw.bb3
    i32 0, label %sw.bb17
  ]

sw.bb3:                                           ; preds = %if.then2
  %shr = lshr i64 %l2_bitmap, 32
  %and = and i64 %shr, %l2_bitmap
  %tobool.not = icmp eq i64 %and, 0
  br i1 %tobool.not, label %if.else5, label %if.end39

if.else5:                                         ; preds = %sw.bb3
  %sh_prom = zext nneg i32 %sc_index to i64
  %shl6 = shl i64 4294967296, %sh_prom
  %and7 = and i64 %shl6, %l2_bitmap
  %tobool8.not = icmp eq i64 %and7, 0
  br i1 %tobool8.not, label %if.else10, label %if.end39

if.else10:                                        ; preds = %if.else5
  %shl = shl nuw i64 1, %sh_prom
  %and13 = and i64 %shl, %l2_bitmap
  %tobool14.not = icmp eq i64 %and13, 0
  %. = select i1 %tobool14.not, i32 1, i32 4
  br label %if.end39

sw.bb17:                                          ; preds = %if.then2
  %and18 = and i64 %l2_bitmap, 4294967295
  %tobool19.not = icmp eq i64 %and18, 0
  br i1 %tobool19.not, label %if.else21, label %if.end39

if.else21:                                        ; preds = %sw.bb17
  %sh_prom22 = zext nneg i32 %sc_index to i64
  %shl24 = shl i64 4294967296, %sh_prom22
  %and25 = and i64 %shl24, %l2_bitmap
  %tobool26.not = icmp eq i64 %and25, 0
  %.12 = select i1 %tobool26.not, i32 0, i32 2
  br label %if.end39

do.body:                                          ; preds = %if.then2
  tail call void @g_assertion_message_expr(ptr noundef null, ptr noundef nonnull @.str.30, i32 noundef 779, ptr noundef nonnull @__func__.qcow2_get_subcluster_type, ptr noundef null) #15
  unreachable

switch.lookup:                                    ; preds = %if.end
  %6 = zext nneg i32 %retval.0.i to i64
  %switch.gep = getelementptr inbounds nuw [5 x i32], ptr @switch.table.qcow2_get_subcluster_type, i64 0, i64 %6
  %switch.load = load i32, ptr %switch.gep, align 4
  br label %if.end39

if.end39:                                         ; preds = %switch.lookup, %if.else21, %sw.bb17, %if.else10, %if.else5, %sw.bb3, %if.then2
  %retval.0 = phi i32 [ 5, %if.then2 ], [ 6, %sw.bb3 ], [ 3, %if.else5 ], [ %., %if.else10 ], [ 6, %sw.bb17 ], [ %.12, %if.else21 ], [ %switch.load, %switch.lookup ]
  ret i32 %retval.0
}